(dp0
S'files'
p1
(S'imex'
p2
S'model'
p3
S'protobuf'
p4
S'simulations'
p5
tp6
sS'name'
p7
S'WorldEngine'
p8
sS'author'
p9
S''
p10
sS'script'
p11
S'worldengine.py'
p12
sS'displaymode'
p13
S'windows'
p14
sS'version'
p15
S'GUIv1'
p16
sS'data'
p17
(S'Images=Images'
p18
S'Maps=Maps'
p19
S'textures=textures'
p20
S'textures/ecubes=textures/ecubes'
p21
tp22
sS'icon'
p23
g10
s.